; Function Attrs: nounwind uwtable
define dso_local i32 @pg_fsync(i32 noundef %0) local_unnamed_addr #0 {
  %2 = load i8, ptr @enableFsync, align 1, !range !4, !noundef !5
  %3 = trunc nuw i8 %2 to i1
  br i1 %3, label %.preheader.i, label %pg_fsync_no_writethrough.exit

.preheader.i:                                     ; preds = %1, %6
  %4 = tail call i32 @fsync(i32 noundef %0) #25
  %5 = icmp eq i32 %4, -1
  br i1 %5, label %6, label %pg_fsync_no_writethrough.exit

6:                                                ; preds = %.preheader.i
  %7 = tail call ptr @__errno_location() #26
  %8 = load i32, ptr %7, align 4
  %9 = icmp eq i32 %8, 4
  br i1 %9, label %.preheader.i, label %pg_fsync_no_writethrough.exit

pg_fsync_no_writethrough.exit:                    ; preds = %.preheader.i, %6, %1
  %.0.i = phi i32 [ 0, %1 ], [ -1, %6 ], [ %4, %.preheader.i ]
  ret i32 %.0.i
}